target datalayout = "e-m:e-p270:32:32-p271:32:32-p272:64:64-i64:64-i128:128-f80:128-n8:16:32:64-S128"
target triple = "x86_64-pc-linux-gnu"

%"class.cv::MatCommaInitializer_" = type { %"class.cv::MatIterator_" }
%"class.cv::MatIterator_" = type { %"class.cv::MatConstIterator_" }
%"class.cv::MatConstIterator_" = type { %"class.cv::MatConstIterator" }
%"class.cv::MatConstIterator" = type { ptr, i64, ptr, ptr, ptr }

; Function Attrs: inlinehint mustprogress nounwind uwtable
define linkonce_odr hidden void @_ZN2cv16MatConstIteratorC2ERKS0_(ptr noundef nonnull align 8 dereferenceable(40) %0, ptr noundef nonnull align 8 dereferenceable(40) %1) unnamed_addr #6 comdat align 2 {
  %3 = alloca ptr, align 8
  %4 = alloca ptr, align 8
  store ptr %0, ptr %3, align 8, !tbaa !1048
  store ptr %1, ptr %4, align 8, !tbaa !1048
  %5 = load ptr, ptr %3, align 8
  %6 = getelementptr inbounds nuw %"class.cv::MatConstIterator", ptr %5, i32 0, i32 0
  %7 = load ptr, ptr %4, align 8, !tbaa !1048
  %8 = getelementptr inbounds nuw %"class.cv::MatConstIterator", ptr %7, i32 0, i32 0
  %9 = load ptr, ptr %8, align 8, !tbaa !403
  store ptr %9, ptr %6, align 8, !tbaa !403
  %10 = getelementptr inbounds nuw %"class.cv::MatConstIterator", ptr %5, i32 0, i32 1
  %11 = load ptr, ptr %4, align 8, !tbaa !1048
  %12 = getelementptr inbounds nuw %"class.cv::MatConstIterator", ptr %11, i32 0, i32 1
  %13 = load i64, ptr %12, align 8, !tbaa !1050
  store i64 %13, ptr %10, align 8, !tbaa !1050
  %14 = getelementptr inbounds nuw %"class.cv::MatConstIterator", ptr %5, i32 0, i32 2
  %15 = load ptr, ptr %4, align 8, !tbaa !1048
  %16 = getelementptr inbounds nuw %"class.cv::MatConstIterator", ptr %15, i32 0, i32 2
  %17 = load ptr, ptr %16, align 8, !tbaa !1051
  store ptr %17, ptr %14, align 8, !tbaa !1051
  %18 = getelementptr inbounds nuw %"class.cv::MatConstIterator", ptr %5, i32 0, i32 3
  %19 = load ptr, ptr %4, align 8, !tbaa !1048
  %20 = getelementptr inbounds nuw %"class.cv::MatConstIterator", ptr %19, i32 0, i32 3
  %21 = load ptr, ptr %20, align 8, !tbaa !1052
  store ptr %21, ptr %18, align 8, !tbaa !1052
  %22 = getelementptr inbounds nuw %"class.cv::MatConstIterator", ptr %5, i32 0, i32 4
  %23 = load ptr, ptr %4, align 8, !tbaa !1048
  %24 = getelementptr inbounds nuw %"class.cv::MatConstIterator", ptr %23, i32 0, i32 4
  %25 = load ptr, ptr %24, align 8, !tbaa !1053
  store ptr %25, ptr %22, align 8, !tbaa !1053
  ret void
}

; Function Attrs: inlinehint mustprogress uwtable
define linkonce_odr hidden void @_ZN2cv17MatConstIterator_IdEC2ERKS1_(ptr noundef nonnull align 8 dereferenceable(40) %0, ptr noundef nonnull align 8 dereferenceable(40) %1) unnamed_addr #12 comdat align 2 {
  %3 = alloca ptr, align 8
  %4 = alloca ptr, align 8
  store ptr %0, ptr %3, align 8, !tbaa !1046
  store ptr %1, ptr %4, align 8, !tbaa !1046
  %5 = load ptr, ptr %3, align 8
  %6 = load ptr, ptr %4, align 8, !tbaa !1046
  call void @_ZN2cv16MatConstIteratorC2ERKS0_(ptr noundef nonnull align 8 dereferenceable(40) %5, ptr noundef nonnull align 8 dereferenceable(40) %6)
  ret void
}

; Function Attrs: inlinehint mustprogress uwtable
define linkonce_odr hidden noundef nonnull align 8 dereferenceable(40) ptr @_ZN2cv16MatConstIteratorppEv(ptr noundef nonnull align 8 dereferenceable(40) %0) #12 comdat align 2 {
  %2 = alloca ptr, align 8
  store ptr %0, ptr %2, align 8, !tbaa !1048
  %3 = load ptr, ptr %2, align 8
  %4 = getelementptr inbounds nuw %"class.cv::MatConstIterator", ptr %3, i32 0, i32 0
  %5 = load ptr, ptr %4, align 8, !tbaa !403
  %6 = icmp ne ptr %5, null
  br i1 %6, label %7, label %23

7:                                                ; preds = %1
  %8 = getelementptr inbounds nuw %"class.cv::MatConstIterator", ptr %3, i32 0, i32 1
  %9 = load i64, ptr %8, align 8, !tbaa !1050
  %10 = getelementptr inbounds nuw %"class.cv::MatConstIterator", ptr %3, i32 0, i32 2
  %11 = load ptr, ptr %10, align 8, !tbaa !1051
  %12 = getelementptr inbounds nuw i8, ptr %11, i64 %9
  store ptr %12, ptr %10, align 8, !tbaa !1051
  %13 = getelementptr inbounds nuw %"class.cv::MatConstIterator", ptr %3, i32 0, i32 4
  %14 = load ptr, ptr %13, align 8, !tbaa !1053
  %15 = icmp uge ptr %12, %14
  br i1 %15, label %16, label %23

16:                                               ; preds = %7
  %17 = getelementptr inbounds nuw %"class.cv::MatConstIterator", ptr %3, i32 0, i32 1
  %18 = load i64, ptr %17, align 8, !tbaa !1050
  %19 = getelementptr inbounds nuw %"class.cv::MatConstIterator", ptr %3, i32 0, i32 2
  %20 = load ptr, ptr %19, align 8, !tbaa !1051
  %21 = sub i64 0, %18
  %22 = getelementptr inbounds i8, ptr %20, i64 %21
  store ptr %22, ptr %19, align 8, !tbaa !1051
  call void @_ZN2cv16MatConstIterator4seekElb(ptr noundef nonnull align 8 dereferenceable(40) %3, i64 noundef 1, i1 noundef zeroext true)
  br label %23

23:                                               ; preds = %16, %7, %1
  ret ptr %3
}

; Function Attrs: inlinehint mustprogress uwtable
define linkonce_odr hidden void @_ZN2cv17MatConstIterator_IdEC2EPKNS_4Mat_IdEE(ptr noundef nonnull align 8 dereferenceable(40) %0, ptr noundef %1) unnamed_addr #12 comdat align 2 {
  %3 = alloca ptr, align 8
  %4 = alloca ptr, align 8
  store ptr %0, ptr %3, align 8, !tbaa !1046
  store ptr %1, ptr %4, align 8, !tbaa !399
  %5 = load ptr, ptr %3, align 8
  %6 = load ptr, ptr %4, align 8, !tbaa !399
  call void @_ZN2cv16MatConstIteratorC2EPKNS_3MatE(ptr noundef nonnull align 8 dereferenceable(40) %5, ptr noundef %6)
  ret void
}

; Function Attrs: inlinehint mustprogress uwtable
define linkonce_odr hidden void @_ZN2cv12MatIterator_IdEC2ERKS1_(ptr noundef nonnull align 8 dereferenceable(40) %0, ptr noundef nonnull align 8 dereferenceable(40) %1) unnamed_addr #12 comdat align 2 {
  %3 = alloca ptr, align 8
  %4 = alloca ptr, align 8
  store ptr %0, ptr %3, align 8, !tbaa !1044
  store ptr %1, ptr %4, align 8, !tbaa !1044
  %5 = load ptr, ptr %3, align 8
  %6 = load ptr, ptr %4, align 8, !tbaa !1044
  call void @_ZN2cv17MatConstIterator_IdEC2ERKS1_(ptr noundef nonnull align 8 dereferenceable(40) %5, ptr noundef nonnull align 8 dereferenceable(40) %6)
  ret void
}

; Function Attrs: inlinehint mustprogress uwtable
define linkonce_odr hidden noundef nonnull align 8 dereferenceable(40) ptr @_ZN2cv12MatIterator_IdEppEv(ptr noundef nonnull align 8 dereferenceable(40) %0) #12 comdat align 2 {
  %2 = alloca ptr, align 8
  store ptr %0, ptr %2, align 8, !tbaa !1044
  %3 = load ptr, ptr %2, align 8
  %4 = call noundef nonnull align 8 dereferenceable(40) ptr @_ZN2cv16MatConstIteratorppEv(ptr noundef nonnull align 8 dereferenceable(40) %3)
  ret ptr %3
}

; Function Attrs: inlinehint mustprogress nounwind uwtable
define linkonce_odr hidden noundef nonnull align 8 dereferenceable(8) ptr @_ZNK2cv12MatIterator_IdEdeEv(ptr noundef nonnull align 8 dereferenceable(40) %0) #6 comdat align 2 {
  %2 = alloca ptr, align 8
  store ptr %0, ptr %2, align 8, !tbaa !1044
  %3 = load ptr, ptr %2, align 8
  %4 = getelementptr inbounds nuw %"class.cv::MatConstIterator", ptr %3, i32 0, i32 2
  %5 = load ptr, ptr %4, align 8, !tbaa !1051
  ret ptr %5
}

; Function Attrs: inlinehint mustprogress uwtable
define linkonce_odr hidden void @_ZN2cv12MatIterator_IdEC2EPNS_4Mat_IdEE(ptr noundef nonnull align 8 dereferenceable(40) %0, ptr noundef %1) unnamed_addr #12 comdat align 2 {
  %3 = alloca ptr, align 8
  %4 = alloca ptr, align 8
  store ptr %0, ptr %3, align 8, !tbaa !1044
  store ptr %1, ptr %4, align 8, !tbaa !399
  %5 = load ptr, ptr %3, align 8
  %6 = load ptr, ptr %4, align 8, !tbaa !399
  call void @_ZN2cv17MatConstIterator_IdEC2EPKNS_4Mat_IdEE(ptr noundef nonnull align 8 dereferenceable(40) %5, ptr noundef %6)
  ret void
}

; Function Attrs: inlinehint mustprogress uwtable
define linkonce_odr hidden void @_ZN2cv20MatCommaInitializer_IdEC2ERKS1_(ptr noundef nonnull align 8 dereferenceable(40) %0, ptr noundef nonnull align 8 dereferenceable(40) %1) unnamed_addr #12 comdat align 2 {
  %3 = alloca ptr, align 8
  %4 = alloca ptr, align 8
  store ptr %0, ptr %3, align 8, !tbaa !401
  store ptr %1, ptr %4, align 8, !tbaa !401
  %5 = load ptr, ptr %3, align 8
  %6 = getelementptr inbounds nuw %"class.cv::MatCommaInitializer_", ptr %5, i32 0, i32 0
  %7 = load ptr, ptr %4, align 8, !tbaa !401
  %8 = getelementptr inbounds nuw %"class.cv::MatCommaInitializer_", ptr %7, i32 0, i32 0
  call void @_ZN2cv12MatIterator_IdEC2ERKS1_(ptr noundef nonnull align 8 dereferenceable(40) %6, ptr noundef nonnull align 8 dereferenceable(40) %8)
  ret void
}

; Function Attrs: inlinehint mustprogress uwtable
define linkonce_odr hidden noundef nonnull align 8 dereferenceable(40) ptr @_ZN2cv20MatCommaInitializer_IdEcmIiEERS1_T_(ptr noundef nonnull align 8 dereferenceable(40) %0, i32 noundef %1) #12 comdat align 2 {
  %3 = alloca ptr, align 8
  %4 = alloca i32, align 4
  store ptr %0, ptr %3, align 8, !tbaa !401
  store i32 %1, ptr %4, align 4, !tbaa !3
  %5 = load ptr, ptr %3, align 8
  %6 = load i32, ptr %4, align 4, !tbaa !3
  %7 = sitofp i32 %6 to double
  %8 = getelementptr inbounds nuw %"class.cv::MatCommaInitializer_", ptr %5, i32 0, i32 0
  %9 = call noundef nonnull align 8 dereferenceable(8) ptr @_ZNK2cv12MatIterator_IdEdeEv(ptr noundef nonnull align 8 dereferenceable(40) %8)
  store double %7, ptr %9, align 8, !tbaa !37
  %10 = getelementptr inbounds nuw %"class.cv::MatCommaInitializer_", ptr %5, i32 0, i32 0
  %11 = call noundef nonnull align 8 dereferenceable(40) ptr @_ZN2cv12MatIterator_IdEppEv(ptr noundef nonnull align 8 dereferenceable(40) %10)
  ret ptr %5
}

; Function Attrs: inlinehint mustprogress uwtable
define linkonce_odr hidden void @_ZN2cv20MatCommaInitializer_IdEC2EPNS_4Mat_IdEE(ptr noundef nonnull align 8 dereferenceable(40) %0, ptr noundef %1) unnamed_addr #12 comdat align 2 {
  %3 = alloca ptr, align 8
  %4 = alloca ptr, align 8
  store ptr %0, ptr %3, align 8, !tbaa !401
  store ptr %1, ptr %4, align 8, !tbaa !399
  %5 = load ptr, ptr %3, align 8
  %6 = getelementptr inbounds nuw %"class.cv::MatCommaInitializer_", ptr %5, i32 0, i32 0
  %7 = load ptr, ptr %4, align 8, !tbaa !399
  call void @_ZN2cv12MatIterator_IdEC2EPNS_4Mat_IdEE(ptr noundef nonnull align 8 dereferenceable(40) %6, ptr noundef %7)
  ret void
}

; Function Attrs: inlinehint mustprogress uwtable
define internal void @_ZN2cvlsIdiEENS_20MatCommaInitializer_IT_EERKNS_4Mat_IS2_EET0_(ptr dead_on_unwind noalias writable sret(%"class.cv::MatCommaInitializer_") align 8 %0, ptr noundef nonnull align 8 dereferenceable(96) %1, i32 noundef %2) #12 {
  %4 = alloca ptr, align 8
  %5 = alloca ptr, align 8
  %6 = alloca i32, align 4
  %7 = alloca %"class.cv::MatCommaInitializer_", align 8
  store ptr %0, ptr %4, align 8
  store ptr %1, ptr %5, align 8, !tbaa !399
  store i32 %2, ptr %6, align 4, !tbaa !3
  call void @llvm.lifetime.start.p0(i64 40, ptr %7) #3
  %8 = load ptr, ptr %5, align 8, !tbaa !399
  call void @_ZN2cv20MatCommaInitializer_IdEC2EPNS_4Mat_IdEE(ptr noundef nonnull align 8 dereferenceable(40) %7, ptr noundef %8)
  %9 = load i32, ptr %6, align 4, !tbaa !3
  %10 = call noundef nonnull align 8 dereferenceable(40) ptr @_ZN2cv20MatCommaInitializer_IdEcmIiEERS1_T_(ptr noundef nonnull align 8 dereferenceable(40) %7, i32 noundef %9)
  call void @_ZN2cv20MatCommaInitializer_IdEC2ERKS1_(ptr noundef nonnull align 8 dereferenceable(40) %0, ptr noundef nonnull align 8 dereferenceable(40) %10)
  call void @llvm.lifetime.end.p0(i64 40, ptr %7) #3
  ret void
}