; Function Attrs: inlinehint mustprogress uwtable
define internal fastcc void @_ZN2cvlsIdiEENS_20MatCommaInitializer_IT_EERKNS_4Mat_IS2_EET0_(ptr dead_on_unwind noalias nonnull writable writeonly align 8 captures(none) initializes((0, 40)) %0, ptr noundef nonnull align 8 dereferenceable(96) %1) unnamed_addr #9 {
  %3 = alloca %"class.cv::MatCommaInitializer_", align 8
  call void @llvm.lifetime.start.p0(i64 40, ptr nonnull %3) #37
  call void @_ZN2cv16MatConstIteratorC2EPKNS_3MatE(ptr noundef nonnull align 8 dereferenceable(40) %3, ptr noundef nonnull %1)
  %4 = getelementptr inbounds nuw i8, ptr %3, i64 16
  %5 = load ptr, ptr %4, align 8, !tbaa !438
  store double 0.000000e+00, ptr %5, align 8, !tbaa !44
  %6 = load ptr, ptr %3, align 8, !tbaa !440
  %.not.i.i.i = icmp eq ptr %6, null
  br i1 %.not.i.i.i, label %_ZN2cv20MatCommaInitializer_IdEcmIiEERS1_T_.exit, label %7

7:                                                ; preds = %2
  %8 = getelementptr inbounds nuw i8, ptr %3, i64 8
  %9 = load i64, ptr %8, align 8, !tbaa !441
  %10 = getelementptr inbounds nuw i8, ptr %5, i64 %9
  %11 = getelementptr inbounds nuw i8, ptr %3, i64 32
  %12 = load ptr, ptr %11, align 8, !tbaa !442
  %.not1.i.i.i = icmp ult ptr %10, %12
  br i1 %.not1.i.i.i, label %_ZN2cv20MatCommaInitializer_IdEcmIiEERS1_T_.exit, label %13

13:                                               ; preds = %7
  call void @_ZN2cv16MatConstIterator4seekElb(ptr noundef nonnull align 8 dereferenceable(40) %3, i64 noundef 1, i1 noundef zeroext true)
  %.pre = load ptr, ptr %3, align 8, !tbaa !440
  %.pre1 = load ptr, ptr %4, align 8, !tbaa !438
  br label %_ZN2cv20MatCommaInitializer_IdEcmIiEERS1_T_.exit

_ZN2cv20MatCommaInitializer_IdEcmIiEERS1_T_.exit: ; preds = %2, %7, %13
  %14 = phi ptr [ %5, %2 ], [ %10, %7 ], [ %.pre1, %13 ]
  %15 = phi ptr [ null, %2 ], [ %6, %7 ], [ %.pre, %13 ]
  store ptr %15, ptr %0, align 8, !tbaa !440
  %16 = getelementptr inbounds nuw i8, ptr %0, i64 8
  %17 = getelementptr inbounds nuw i8, ptr %3, i64 8
  %18 = load i64, ptr %17, align 8, !tbaa !441
  store i64 %18, ptr %16, align 8, !tbaa !441
  %19 = getelementptr inbounds nuw i8, ptr %0, i64 16
  store ptr %14, ptr %19, align 8, !tbaa !438
  %20 = getelementptr inbounds nuw i8, ptr %0, i64 24
  %21 = getelementptr inbounds nuw i8, ptr %3, i64 24
  %22 = load ptr, ptr %21, align 8, !tbaa !443
  store ptr %22, ptr %20, align 8, !tbaa !443
  %23 = getelementptr inbounds nuw i8, ptr %0, i64 32
  %24 = getelementptr inbounds nuw i8, ptr %3, i64 32
  %25 = load ptr, ptr %24, align 8, !tbaa !442
  store ptr %25, ptr %23, align 8, !tbaa !442
  call void @llvm.lifetime.end.p0(i64 40, ptr nonnull %3) #37
  ret void
}